; Function Attrs: mustprogress nofree norecurse nosync nounwind willreturn memory(argmem: write) uwtable
define void @_ZN3gmx16LoggingSignaller24registerLastStepCallbackEv(ptr dead_on_unwind noalias nocapture writable writeonly sret(%"class.std::optional") align 8 %0, ptr noundef nonnull align 8 dereferenceable(80) %1) unnamed_addr #3 align 2 personality ptr @__gxx_personality_v0 {
  %3 = getelementptr inbounds i8, ptr %1, i64 72
  store i8 1, ptr %3, align 8
  %4 = getelementptr inbounds i8, ptr %0, i64 16
  %5 = getelementptr inbounds i8, ptr %0, i64 24
  %6 = getelementptr inbounds i8, ptr %0, i64 8
  store i64 0, ptr %6, align 8
  %7 = ptrtoint ptr %1 to i64
  store i64 %7, ptr %0, align 8
  store ptr @"_ZNSt17_Function_handlerIFvldEZN3gmx16LoggingSignaller24registerLastStepCallbackEvE3$_0E9_M_invokeERKSt9_Any_dataOlOd", ptr %5, align 8
  store ptr @"_ZNSt17_Function_handlerIFvldEZN3gmx16LoggingSignaller24registerLastStepCallbackEvE3$_0E10_M_managerERSt9_Any_dataRKS5_St18_Manager_operation", ptr %4, align 8
  %8 = getelementptr inbounds i8, ptr %0, i64 32
  store i8 1, ptr %8, align 8
  ret void
}